; Function Attrs: mustprogress uwtable
define hidden noundef zeroext i1 @_ZN2cv7details10Chessboard5Board11isCellEmptyEii(ptr noundef nonnull readonly align 8 captures(none) dereferenceable(80) %0, i32 noundef %1, i32 noundef %2) local_unnamed_addr #5 align 2 {
  %4 = tail call noundef ptr @_ZNK2cv7details10Chessboard5Board7getCellEii(ptr noundef nonnull readonly align 8 dereferenceable(80) %0, i32 noundef %1, i32 noundef %2)
  %5 = load ptr, ptr %4, align 8, !tbaa !178
  %6 = load float, ptr %5, align 4, !tbaa !168
  %7 = fcmp uno float %6, 0.000000e+00
  br i1 %7, label %_ZNK2cv7details10Chessboard5Board4Cell5emptyEv.exit, label %8

8:                                                ; preds = %3
  %9 = getelementptr inbounds nuw i8, ptr %5, i64 4
  %10 = load float, ptr %9, align 4, !tbaa !169
  %11 = fcmp uno float %10, 0.000000e+00
  br i1 %11, label %_ZNK2cv7details10Chessboard5Board4Cell5emptyEv.exit, label %12

12:                                               ; preds = %8
  %13 = getelementptr inbounds nuw i8, ptr %4, i64 8
  %14 = load ptr, ptr %13, align 8, !tbaa !182
  %15 = load float, ptr %14, align 4, !tbaa !168
  %16 = fcmp uno float %15, 0.000000e+00
  br i1 %16, label %_ZNK2cv7details10Chessboard5Board4Cell5emptyEv.exit, label %17

17:                                               ; preds = %12
  %18 = getelementptr inbounds nuw i8, ptr %14, i64 4
  %19 = load float, ptr %18, align 4, !tbaa !169
  %20 = fcmp uno float %19, 0.000000e+00
  br i1 %20, label %_ZNK2cv7details10Chessboard5Board4Cell5emptyEv.exit, label %21

21:                                               ; preds = %17
  %22 = getelementptr inbounds nuw i8, ptr %4, i64 16
  %23 = load ptr, ptr %22, align 8, !tbaa !183
  %24 = load float, ptr %23, align 4, !tbaa !168
  %25 = fcmp uno float %24, 0.000000e+00
  br i1 %25, label %_ZNK2cv7details10Chessboard5Board4Cell5emptyEv.exit, label %26

26:                                               ; preds = %21
  %27 = getelementptr inbounds nuw i8, ptr %23, i64 4
  %28 = load float, ptr %27, align 4, !tbaa !169
  %29 = fcmp uno float %28, 0.000000e+00
  br i1 %29, label %_ZNK2cv7details10Chessboard5Board4Cell5emptyEv.exit, label %30

30:                                               ; preds = %26
  %31 = getelementptr inbounds nuw i8, ptr %4, i64 24
  %32 = load ptr, ptr %31, align 8, !tbaa !184
  %33 = load float, ptr %32, align 4, !tbaa !168
  %34 = fcmp uno float %33, 0.000000e+00
  br i1 %34, label %_ZNK2cv7details10Chessboard5Board4Cell5emptyEv.exit, label %35

35:                                               ; preds = %30
  %36 = getelementptr inbounds nuw i8, ptr %32, i64 4
  %37 = load float, ptr %36, align 4, !tbaa !169
  %38 = fcmp uno float %37, 0.000000e+00
  br i1 %38, label %_ZNK2cv7details10Chessboard5Board4Cell5emptyEv.exit, label %39

39:                                               ; preds = %35
  br label %_ZNK2cv7details10Chessboard5Board4Cell5emptyEv.exit

_ZNK2cv7details10Chessboard5Board4Cell5emptyEv.exit: ; preds = %3, %8, %12, %17, %21, %26, %30, %35, %39
  %.0.i = phi i1 [ false, %39 ], [ true, %8 ], [ true, %3 ], [ true, %17 ], [ true, %12 ], [ true, %26 ], [ true, %21 ], [ true, %35 ], [ true, %30 ]
  ret i1 %.0.i
}